target datalayout = "e-m:e-p270:32:32-p271:32:32-p272:64:64-i64:64-i128:128-f80:128-n8:16:32:64-S128"
target triple = "x86_64-pc-linux-gnu"

; Function Attrs: nounwind uwtable
define internal i32 @socketOptionSupported(i32 noundef %0, i32 noundef %1) #0 {
  %3 = alloca i32, align 4
  %4 = alloca i32, align 4
  %5 = alloca i32, align 4
  %6 = alloca i32, align 4
  %7 = alloca i32, align 4
  %8 = alloca i32, align 4
  %9 = alloca i32, align 4
  store i32 %0, ptr %4, align 4
  store i32 %1, ptr %5, align 4
  store i32 1, ptr %6, align 4
  store i32 4, ptr %9, align 4
  %10 = call i32 @socket(i32 noundef 10, i32 noundef 1, i32 noundef 6) #4
  store i32 %10, ptr %8, align 4
  %11 = load i32, ptr %8, align 4
  %12 = icmp slt i32 %11, 0
  br i1 %12, label %13, label %28

13:                                               ; preds = %2
  %14 = call ptr @__errno_location() #5
  %15 = load i32, ptr %14, align 4
  %16 = icmp eq i32 %15, 96
  br i1 %16, label %21, label %17

17:                                               ; preds = %13
  %18 = call ptr @__errno_location() #5
  %19 = load i32, ptr %18, align 4
  %20 = icmp eq i32 %19, 97
  br i1 %20, label %21, label %23

21:                                               ; preds = %17, %13
  %22 = call i32 @socket(i32 noundef 2, i32 noundef 1, i32 noundef 6) #4
  store i32 %22, ptr %8, align 4
  br label %23

23:                                               ; preds = %21, %17
  %24 = load i32, ptr %8, align 4
  %25 = icmp slt i32 %24, 0
  br i1 %25, label %26, label %27

26:                                               ; preds = %23
  store i32 0, ptr %3, align 4
  br label %45

27:                                               ; preds = %23
  br label %28

28:                                               ; preds = %27, %2
  %29 = load i32, ptr %8, align 4
  %30 = load i32, ptr %4, align 4
  %31 = load i32, ptr %5, align 4
  %32 = call i32 @getsockopt(i32 noundef %29, i32 noundef %30, i32 noundef %31, ptr noundef %6, ptr noundef %9) #4
  store i32 %32, ptr %7, align 4
  %33 = load i32, ptr %7, align 4
  %34 = icmp ne i32 %33, 0
  br i1 %34, label %35, label %40

35:                                               ; preds = %28
  %36 = call ptr @__errno_location() #5
  %37 = load i32, ptr %36, align 4
  %38 = icmp eq i32 %37, 92
  br i1 %38, label %39, label %40

39:                                               ; preds = %35
  store i32 0, ptr %7, align 4
  br label %41

40:                                               ; preds = %35, %28
  store i32 1, ptr %7, align 4
  br label %41

41:                                               ; preds = %40, %39
  %42 = load i32, ptr %8, align 4
  %43 = call i32 @close(i32 noundef %42)
  %44 = load i32, ptr %7, align 4
  store i32 %44, ptr %3, align 4
  br label %45

45:                                               ; preds = %41, %26
  %46 = load i32, ptr %3, align 4
  ret i32 %46
}