; Function Attrs: nounwind uwtable
define internal fastcc range(i32 0, 2) i32 @socketOptionSupported(i32 noundef %0, i32 noundef %1) unnamed_addr #0 {
  %3 = alloca i32, align 4
  %4 = alloca i32, align 4
  store i32 1, ptr %3, align 4
  store i32 4, ptr %4, align 4
  %5 = tail call i32 @socket(i32 noundef 10, i32 noundef 1, i32 noundef 6) #4
  %6 = icmp slt i32 %5, 0
  br i1 %6, label %7, label %14

7:                                                ; preds = %2
  %8 = tail call ptr @__errno_location() #5
  %9 = load i32, ptr %8, align 4
  %10 = and i32 %9, -2
  %switch = icmp eq i32 %10, 96
  br i1 %switch, label %11, label %.thread

11:                                               ; preds = %7
  %12 = tail call i32 @socket(i32 noundef 2, i32 noundef 1, i32 noundef 6) #4
  %13 = icmp slt i32 %12, 0
  br i1 %13, label %.thread, label %14

14:                                               ; preds = %11, %2
  %.1 = phi i32 [ %12, %11 ], [ %5, %2 ]
  %15 = call i32 @getsockopt(i32 noundef %.1, i32 noundef %0, i32 noundef %1, ptr noundef nonnull %3, ptr noundef nonnull %4) #4
  %.not = icmp eq i32 %15, 0
  br i1 %.not, label %20, label %16

16:                                               ; preds = %14
  %17 = tail call ptr @__errno_location() #5
  %18 = load i32, ptr %17, align 4
  %19 = icmp eq i32 %18, 92
  br i1 %19, label %21, label %20

20:                                               ; preds = %16, %14
  br label %21

21:                                               ; preds = %16, %20
  %.09 = phi i32 [ 1, %20 ], [ 0, %16 ]
  %22 = call i32 @close(i32 noundef %.1) #4
  br label %.thread

.thread:                                          ; preds = %7, %11, %21
  %.010 = phi i32 [ %.09, %21 ], [ 0, %11 ], [ 0, %7 ]
  ret i32 %.010
}